target datalayout = "e-m:e-p270:32:32-p271:32:32-p272:64:64-i64:64-i128:128-f80:128-n8:16:32:64-S128"
target triple = "x86_64-pc-linux-gnu"

%"struct.duckdb_zstd::ZSTD_frameHeader" = type { i64, i64, i32, i32, i32, i32, i32, i32, i32 }

; Function Attrs: mustprogress uwtable
define noundef i64 @_ZN11duckdb_zstd19ZSTD_getFrameHeaderEPNS_16ZSTD_frameHeaderEPKvm(ptr noundef %0, ptr noundef %1, i64 noundef %2) #0 {
  %4 = alloca ptr, align 8
  %5 = alloca ptr, align 8
  %6 = alloca i64, align 8
  store ptr %0, ptr %4, align 8, !tbaa !33
  store ptr %1, ptr %5, align 8, !tbaa !33
  store i64 %2, ptr %6, align 8, !tbaa !34
  %7 = load ptr, ptr %4, align 8, !tbaa !33
  %8 = load ptr, ptr %5, align 8, !tbaa !33
  %9 = load i64, ptr %6, align 8, !tbaa !34
  %10 = call noundef i64 @_ZN11duckdb_zstd28ZSTD_getFrameHeader_advancedEPNS_16ZSTD_frameHeaderEPKvmNS_13ZSTD_format_eE(ptr noundef %7, ptr noundef %8, i64 noundef %9, i32 noundef 0)
  ret i64 %10
}

; Function Attrs: mustprogress uwtable
define noundef i64 @_ZN11duckdb_zstd24ZSTD_getFrameContentSizeEPKvm(ptr noundef %0, i64 noundef %1) #0 {
  %3 = alloca i64, align 8
  %4 = alloca ptr, align 8
  %5 = alloca i64, align 8
  %6 = alloca %"struct.duckdb_zstd::ZSTD_frameHeader", align 8
  %7 = alloca i32, align 4
  store ptr %0, ptr %4, align 8, !tbaa !33
  store i64 %1, ptr %5, align 8, !tbaa !34
  call void @llvm.lifetime.start.p0(i64 48, ptr %6) #12
  %8 = load ptr, ptr %4, align 8, !tbaa !33
  %9 = load i64, ptr %5, align 8, !tbaa !34
  %10 = call noundef i64 @_ZN11duckdb_zstd19ZSTD_getFrameHeaderEPNS_16ZSTD_frameHeaderEPKvm(ptr noundef %6, ptr noundef %8, i64 noundef %9)
  %11 = icmp ne i64 %10, 0
  br i1 %11, label %12, label %13

12:                                               ; preds = %2
  store i64 -2, ptr %3, align 8
  store i32 1, ptr %7, align 4
  br label %21

13:                                               ; preds = %2
  %14 = getelementptr inbounds nuw %"struct.duckdb_zstd::ZSTD_frameHeader", ptr %6, i32 0, i32 3
  %15 = load i32, ptr %14, align 4, !tbaa !59
  %16 = icmp eq i32 %15, 1
  br i1 %16, label %17, label %18

17:                                               ; preds = %13
  store i64 0, ptr %3, align 8
  store i32 1, ptr %7, align 4
  br label %21

18:                                               ; preds = %13
  %19 = getelementptr inbounds nuw %"struct.duckdb_zstd::ZSTD_frameHeader", ptr %6, i32 0, i32 0
  %20 = load i64, ptr %19, align 8, !tbaa !58
  store i64 %20, ptr %3, align 8
  store i32 1, ptr %7, align 4
  br label %21

21:                                               ; preds = %18, %17, %12
  call void @llvm.lifetime.end.p0(i64 48, ptr %6) #12
  %22 = load i64, ptr %3, align 8
  ret i64 %22
}

; Function Attrs: mustprogress uwtable
define noundef i64 @_ZN11duckdb_zstd24ZSTD_getDecompressedSizeEPKvm(ptr noundef %0, i64 noundef %1) #0 {
  %3 = alloca ptr, align 8
  %4 = alloca i64, align 8
  %5 = alloca i64, align 8
  store ptr %0, ptr %3, align 8, !tbaa !33
  store i64 %1, ptr %4, align 8, !tbaa !34
  call void @llvm.lifetime.start.p0(i64 8, ptr %5) #12
  %6 = load ptr, ptr %3, align 8, !tbaa !33
  %7 = load i64, ptr %4, align 8, !tbaa !34
  %8 = call noundef i64 @_ZN11duckdb_zstd24ZSTD_getFrameContentSizeEPKvm(ptr noundef %6, i64 noundef %7)
  store i64 %8, ptr %5, align 8, !tbaa !66
  %9 = load i64, ptr %5, align 8, !tbaa !66
  %10 = icmp uge i64 %9, -2
  br i1 %10, label %11, label %12

11:                                               ; preds = %2
  br label %14

12:                                               ; preds = %2
  %13 = load i64, ptr %5, align 8, !tbaa !66
  br label %14

14:                                               ; preds = %12, %11
  %15 = phi i64 [ 0, %11 ], [ %13, %12 ]
  call void @llvm.lifetime.end.p0(i64 8, ptr %5) #12
  ret i64 %15
}